
Allocating common symbols
Common symbol       size              file

gp_curProc          0x4               target/kernel/main.o
kernel_reenter      0x1               target/kernel/main.o
sys_proc_stack      0x400             target/kernel/main.o
g_tss               0x68              target/kernel/main.o
gp_bootParam        0x4               target/kernel/main.o
gp_idt              0x6               target/kernel/main.o
bill_proc           0x4               target/kernel/main.o
g_dispPosition      0x4               target/kernel/main.o
gp_gdt              0x6               target/kernel/main.o
g_kernelMap         0x8               target/kernel/main.o
g_irqHandlers       0x40              target/kernel/main.o
ready_tail          0xc               target/kernel/main.o
g_gdt               0x138             target/kernel/main.o
ready_head          0xc               target/kernel/main.o
p_proc_addr         0x88              target/kernel/main.o
proc_table          0x1ba0            target/kernel/main.o

Discarded input sections

 .note.GNU-stack
                0x00000000        0x0 target/kernel/main.o
 .note.GNU-stack
                0x00000000        0x0 target/kernel/protect.o
 .note.GNU-stack
                0x00000000        0x0 target/kernel/init_c.o
 .note.GNU-stack
                0x00000000        0x0 target/kernel/exception.o
 .note.GNU-stack
                0x00000000        0x0 target/kernel/panic.o
 .note.GNU-stack
                0x00000000        0x0 target/kernel/i8259.o
 .note.GNU-stack
                0x00000000        0x0 target/kernel/clock.o
 .note.GNU-stack
                0x00000000        0x0 target/lib/ansi/memcmp.o
 .note.GNU-stack
                0x00000000        0x0 target/lib/ansi/cstring.o
 .note.GNU-stack
                0x00000000        0x0 target/lib/stdio/printf.o

Memory Configuration

Name             Origin             Length             Attributes
*default*        0x00000000         0xffffffff

Linker script and memory map

Address of section .text set to 0x1000
LOAD target/kernel/kernel.o
LOAD target/kernel/main.o
LOAD target/kernel/kernel_i386lib.o
LOAD target/kernel/protect.o
LOAD target/kernel/init_c.o
LOAD target/kernel/exception.o
LOAD target/kernel/panic.o
LOAD target/kernel/i8259.o
LOAD target/kernel/clock.o
LOAD target/lib/ansi/string.o
LOAD target/lib/ansi/memcmp.o
LOAD target/lib/ansi/cstring.o
LOAD target/lib/stdio/printf.o
                0x08048000                PROVIDE (__executable_start, 0x8048000)
                0x08048094                . = (0x8048000 + SIZEOF_HEADERS)

.interp
 *(.interp)

.hash
 *(.hash)

.gnu.hash
 *(.gnu.hash)

.dynsym
 *(.dynsym)

.dynstr
 *(.dynstr)

.gnu.version
 *(.gnu.version)

.gnu.version_d
 *(.gnu.version_d)

.gnu.version_r
 *(.gnu.version_r)

.rel.dyn        0x08048094        0x0
 *(.rel.init)
 *(.rel.text .rel.text.* .rel.gnu.linkonce.t.*)
 .rel.text      0x00000000        0x0 target/kernel/kernel.o
 *(.rel.fini)
 *(.rel.rodata .rel.rodata.* .rel.gnu.linkonce.r.*)
 *(.rel.data.rel.ro* .rel.gnu.linkonce.d.rel.ro.*)
 *(.rel.data .rel.data.* .rel.gnu.linkonce.d.*)
 .rel.data      0x00000000        0x0 target/kernel/kernel.o
 *(.rel.tdata .rel.tdata.* .rel.gnu.linkonce.td.*)
 *(.rel.tbss .rel.tbss.* .rel.gnu.linkonce.tb.*)
 *(.rel.ctors)
 *(.rel.dtors)
 *(.rel.got)
 *(.rel.bss .rel.bss.* .rel.gnu.linkonce.b.*)

.rela.dyn
 *(.rela.init)
 *(.rela.text .rela.text.* .rela.gnu.linkonce.t.*)
 *(.rela.fini)
 *(.rela.rodata .rela.rodata.* .rela.gnu.linkonce.r.*)
 *(.rela.data .rela.data.* .rela.gnu.linkonce.d.*)
 *(.rela.tdata .rela.tdata.* .rela.gnu.linkonce.td.*)
 *(.rela.tbss .rela.tbss.* .rela.gnu.linkonce.tb.*)
 *(.rela.ctors)
 *(.rela.dtors)
 *(.rela.got)
 *(.rela.bss .rela.bss.* .rela.gnu.linkonce.b.*)

.rel.plt
 *(.rel.plt)

.rela.plt
 *(.rela.plt)

.init
 *(.init)

.plt
 *(.plt)

.text           0x00001000     0x1663
 *(.text .stub .text.* .gnu.linkonce.t.*)
 .text          0x00001000       0x3f target/kernel/kernel.o
                0x00001000                _start
 *fill*         0x0000103f        0x1 90909090
 .text          0x00001040      0x2fa target/kernel/main.o
                0x00001040                aos_main
                0x000012eb                test_task_b
                0x0000129c                test_task_a
 *fill*         0x0000133a        0x6 90909090
 .text          0x00001340      0x6bf target/kernel/kernel_i386lib.o
                0x000014db                cpu_halt
                0x000017b0                hwint08
                0x00001425                invalid_opcode
                0x000013ad                divide_error
                0x0000145c                coop_proc_seg_oob
                0x00001340                phys_copy
                0x000018b0                hwint12
                0x0000149d                general_protection
                0x000013fd                over_flow
                0x00001580                enable_irq
                0x00001510                out_word
                0x000018f0                hwint13
                0x000017f0                hwint09
                0x00001970                hwint15
                0x000015b0                hwint00
                0x00001670                hwint03
                0x0000147f                segment_not_present
                0x000014bb                math_fault
                0x00001530                interrupt_unlock
                0x00001830                hwint10
                0x000013e9                break_point
                0x000015f0                hwint01
                0x000014f0                out_byte
                0x000013c1                debug_exception
                0x00001630                hwint02
                0x0000144d                double_fault
                0x00001370                low_print
                0x000016f0                hwint05
                0x000013d5                non_maskable_int
                0x00001930                hwint14
                0x000014e0                in_byte
                0x000014ac                page_fault
                0x00001411                out_of_bounds
                0x00001730                hwint06
                0x00001500                in_word
                0x000016b0                hwint04
                0x00001470                invalid_tss
                0x000019d7                restart
                0x00001770                hwint07
                0x0000148e                stack_exception
                0x00001520                interrupt_lock
                0x00001870                hwint11
                0x00001439                dev_not_available
                0x00001540                disable_irq
 *fill*         0x000019ff        0x1 90909090
 .text          0x00001a00      0x270 target/kernel/protect.o
                0x00001bfd                init_segment_desc
                0x00001a00                init_protect
 .text          0x00001c70       0x39 target/kernel/init_c.o
                0x00001c70                init_c
 *fill*         0x00001ca9        0x3 90909090
 .text          0x00001cac       0x6e target/kernel/exception.o
                0x00001cac                exception_handler
 *fill*         0x00001d1a        0x2 90909090
 .text          0x00001d1c       0xbc target/kernel/panic.o
                0x00001d1c                panic
                0x00001d9b                bad_compare
                0x00001d5e                bad_assertion
 .text          0x00001dd8      0x160 target/kernel/i8259.o
                0x00001f24                softIntTest
                0x00001dd8                init_8259A
                0x00001ed5                put_irq_handler
 .text          0x00001f38       0xf7 target/kernel/clock.o
                0x00001f38                clock_task
 *fill*         0x0000202f        0x1 90909090
 .text          0x00002030       0x81 target/lib/ansi/memcmp.o
                0x00002030                memcmp
 *fill*         0x000020b1        0x3 90909090
 .text          0x000020b4      0x12b target/lib/ansi/cstring.o
                0x000020b4                strncmp
                0x0000215a                strcmp
 *fill*         0x000021df        0x1 90909090
 .text          0x000021e0      0x483 target/lib/stdio/printf.o
                0x000021e0                printf
                0x0000221a                fmt_string
 *(.text.*personality*)
 *(.gnu.warning)

.fini
 *(.fini)
                0x00002663                PROVIDE (__etext, .)
                0x00002663                PROVIDE (_etext, .)
                0x00002663                PROVIDE (etext, .)

.rodata         0x00002664      0x4cc
 *(.rodata .rodata.* .gnu.linkonce.r.*)
 .rodata        0x00002664       0x27 target/kernel/main.o
 .rodata        0x0000268b       0x35 target/kernel/protect.o
 .rodata        0x000026c0       0x14 target/kernel/init_c.o
 .rodata        0x000026d4      0x1f8 target/kernel/exception.o
 .rodata        0x000028cc       0xb7 target/kernel/panic.o
 *fill*         0x00002983        0x1 00
 .rodata        0x00002984       0x43 target/kernel/i8259.o
 .rodata        0x000029c7       0x19 target/kernel/clock.o
 .rodata        0x000029e0      0x150 target/lib/stdio/printf.o

.lib            0x00002b30       0x7e
 .lib           0x00002b30       0x7e target/lib/ansi/string.o
                0x00002b80                strcpy
                0x00002b30                memcpy
                0x00002b5c                memset
                0x00002b98                strlen

.rodata1
 *(.rodata1)

.eh_frame_hdr
 *(.eh_frame_hdr)

.eh_frame
 *(.eh_frame)

.gcc_except_table
 *(.gcc_except_table .gcc_except_table.*)
                0x00002bae                . = (ALIGN (0x1000) - ((0x1000 - .) & 0xfff))
                0x00003bae                . = (0x1000 DATA_SEGMENT_ALIGN 0x1000)

.eh_frame
 *(.eh_frame)

.gcc_except_table
 *(.gcc_except_table .gcc_except_table.*)

.tdata
 *(.tdata .tdata.* .gnu.linkonce.td.*)

.tbss
 *(.tbss .tbss.* .gnu.linkonce.tb.*)
 *(.tcommon)

.preinit_array  0x00003bae        0x0
                0x00003bae                PROVIDE (__preinit_array_start, .)
 *(.preinit_array)
                0x00003bae                PROVIDE (__preinit_array_end, .)

.init_array     0x00003bae        0x0
                0x00003bae                PROVIDE (__init_array_start, .)
 *(SORT(.init_array.*))
 *(.init_array)
                0x00003bae                PROVIDE (__init_array_end, .)

.fini_array     0x00003bae        0x0
                0x00003bae                PROVIDE (__fini_array_start, .)
 *(.fini_array)
 *(SORT(.fini_array.*))
                0x00003bae                PROVIDE (__fini_array_end, .)

.ctors
 *crtbegin.o(.ctors)
 *crtbegin?.o(.ctors)
 *(EXCLUDE_FILE(*crtend?.o *crtend.o) .ctors)
 *(SORT(.ctors.*))
 *(.ctors)

.dtors
 *crtbegin.o(.dtors)
 *crtbegin?.o(.dtors)
 *(EXCLUDE_FILE(*crtend?.o *crtend.o) .dtors)
 *(SORT(.dtors.*))
 *(.dtors)

.jcr
 *(.jcr)

.data.rel.ro
 *(.data.rel.ro.local* .gnu.linkonce.d.rel.ro.local.*)
 *(.data.rel.ro* .gnu.linkonce.d.rel.ro.*)

.dynamic
 *(.dynamic)

.got
 *(.got)
                0x00003bae                . = (. DATA_SEGMENT_RELRO_END 0xc)

.got.plt
 *(.got.plt)

.data           0x00003bc0      0x266
 *(.data .data.* .gnu.linkonce.d.*)
 .data          0x00003bc0        0x1 target/kernel/kernel.o
 *fill*         0x00003bc1       0x1f 00
 .data          0x00003be0       0x30 target/kernel/main.o
                0x00003be0                sys_proc_table
 *fill*         0x00003c10       0x10 00
 .data          0x00003c20      0x18c target/kernel/protect.o
                0x00003c20                s_initGateInfos
 .data          0x00003dac        0x0 target/kernel/init_c.o
 *fill*         0x00003dac       0x14 00
 .data          0x00003dc0       0x44 target/kernel/exception.o
 .data          0x00003e04        0x0 target/kernel/panic.o
 .data          0x00003e04        0x0 target/kernel/i8259.o
 .data          0x00003e04        0x0 target/kernel/clock.o
 .data          0x00003e04        0x0 target/lib/ansi/memcmp.o
 .data          0x00003e04        0x0 target/lib/ansi/cstring.o
 .data          0x00003e04       0x22 target/lib/stdio/printf.o
 *(.gnu.linkonce.d.*personality*)

.data1
 *(.data1)
                0x00003e26                _edata = .
                0x00003e26                PROVIDE (edata, .)
                0x00003e26                __bss_start = .

.bss            0x00003e40     0x3020
 *(.dynbss)
 *(.bss .bss.* .gnu.linkonce.b.*)
 .bss           0x00003e40      0x800 target/kernel/kernel.o
                0x00004640                STACK_TOP
 .bss           0x00004640        0x0 target/kernel/main.o
 .bss           0x00004640      0x4a8 target/kernel/protect.o
 .bss           0x00004ae8        0x0 target/kernel/init_c.o
 .bss           0x00004ae8        0x0 target/kernel/exception.o
 .bss           0x00004ae8        0x0 target/kernel/panic.o
 .bss           0x00004ae8        0x0 target/kernel/i8259.o
 .bss           0x00004ae8        0x4 target/kernel/clock.o
 .bss           0x00004aec        0x0 target/lib/ansi/memcmp.o
 .bss           0x00004aec        0x0 target/lib/ansi/cstring.o
 *fill*         0x00004aec       0x14 00
 .bss           0x00004b00       0xa0 target/lib/stdio/printf.o
 *(COMMON)
 COMMON         0x00004ba0     0x22c0 target/kernel/main.o
                0x00004ba0                gp_curProc
                0x00004ba4                kernel_reenter
                0x00004bc0                sys_proc_stack
                0x00004fc0                g_tss
                0x00005028                gp_bootParam
                0x0000502c                gp_idt
                0x00005034                bill_proc
                0x00005038                g_dispPosition
                0x0000503c                gp_gdt
                0x00005044                g_kernelMap
                0x00005060                g_irqHandlers
                0x000050a0                ready_tail
                0x000050c0                g_gdt
                0x000051f8                ready_head
                0x00005220                p_proc_addr
                0x000052c0                proc_table
                0x00006e60                . = ALIGN ((. != 0x0)?0x4:0x1)
                0x00006e60                . = ALIGN (0x4)
                0x00006e60                . = ALIGN (0x4)
                0x00006e60                _end = .
                0x00006e60                PROVIDE (end, .)
                0x00006e60                . = DATA_SEGMENT_END (.)

.stab
 *(.stab)

.stabstr
 *(.stabstr)

.stab.excl
 *(.stab.excl)

.stab.exclstr
 *(.stab.exclstr)

.stab.index
 *(.stab.index)

.stab.indexstr
 *(.stab.indexstr)

.comment        0x00000000      0x229
 *(.comment)
 .comment       0x00000000       0x1f target/kernel/kernel.o
 .comment       0x0000001f       0x2e target/kernel/main.o
 .comment       0x0000004d       0x1f target/kernel/kernel_i386lib.o
 .comment       0x0000006c       0x2e target/kernel/protect.o
 .comment       0x0000009a       0x2e target/kernel/init_c.o
 .comment       0x000000c8       0x2e target/kernel/exception.o
 .comment       0x000000f6       0x2e target/kernel/panic.o
 .comment       0x00000124       0x2e target/kernel/i8259.o
 .comment       0x00000152       0x2e target/kernel/clock.o
 .comment       0x00000180       0x1f target/lib/ansi/string.o
 .comment       0x0000019f       0x2e target/lib/ansi/memcmp.o
 .comment       0x000001cd       0x2e target/lib/ansi/cstring.o
 .comment       0x000001fb       0x2e target/lib/stdio/printf.o

.debug
 *(.debug)

.line
 *(.line)

.debug_srcinfo
 *(.debug_srcinfo)

.debug_sfnames
 *(.debug_sfnames)

.debug_aranges
 *(.debug_aranges)

.debug_pubnames
 *(.debug_pubnames)

.debug_info
 *(.debug_info .gnu.linkonce.wi.*)

.debug_abbrev
 *(.debug_abbrev)

.debug_line
 *(.debug_line)

.debug_frame
 *(.debug_frame)

.debug_str
 *(.debug_str)

.debug_loc
 *(.debug_loc)

.debug_macinfo
 *(.debug_macinfo)

.debug_weaknames
 *(.debug_weaknames)

.debug_funcnames
 *(.debug_funcnames)

.debug_typenames
 *(.debug_typenames)

.debug_varnames
 *(.debug_varnames)

.debug_pubtypes
 *(.debug_pubtypes)

.debug_ranges
 *(.debug_ranges)

/DISCARD/
 *(.note.GNU-stack)
OUTPUT(target/kernel/kernel.bin elf32-i386)
